; Function Attrs: inlinehint nofree norecurse nosync nounwind memory(argmem: readwrite) uwtable
define internal void @avg_pixels4_x2_8_c(ptr noundef captures(none) %0, ptr noundef readonly captures(none) %1, i64 noundef %2, i32 noundef %3) #2 {
  %5 = getelementptr inbounds nuw i8, ptr %1, i64 1
  %6 = icmp sgt i32 %3, 0
  br i1 %6, label %.lr.ph.preheader.i, label %avg_pixels4_l2_8.exit

.lr.ph.preheader.i:                               ; preds = %4
  %sext = shl i64 %2, 32
  %7 = ashr exact i64 %sext, 32
  %wide.trip.count.i = zext nneg i32 %3 to i64
  br label %.lr.ph.i

.lr.ph.i:                                         ; preds = %.lr.ph.i, %.lr.ph.preheader.i
  %indvars.iv.i = phi i64 [ 0, %.lr.ph.preheader.i ], [ %indvars.iv.next.i, %.lr.ph.i ]
  %8 = mul nsw i64 %indvars.iv.i, %7
  %9 = getelementptr inbounds i8, ptr %1, i64 %8
  %10 = load i32, ptr %9, align 1, !tbaa !8
  %11 = getelementptr inbounds i8, ptr %5, i64 %8
  %12 = load i32, ptr %11, align 1, !tbaa !8
  %13 = getelementptr inbounds i8, ptr %0, i64 %8
  %14 = load i32, ptr %13, align 4, !tbaa !9
  %15 = or i32 %12, %10
  %16 = xor i32 %12, %10
  %17 = lshr i32 %16, 1
  %18 = and i32 %17, 2139062143
  %19 = sub i32 %15, %18
  %20 = or i32 %19, %14
  %21 = xor i32 %19, %14
  %22 = lshr i32 %21, 1
  %23 = and i32 %22, 2139062143
  %24 = sub i32 %20, %23
  store i32 %24, ptr %13, align 4, !tbaa !9
  %indvars.iv.next.i = add nuw nsw i64 %indvars.iv.i, 1
  %exitcond.not.i = icmp eq i64 %indvars.iv.next.i, %wide.trip.count.i
  br i1 %exitcond.not.i, label %avg_pixels4_l2_8.exit, label %.lr.ph.i, !llvm.loop !32

avg_pixels4_l2_8.exit:                            ; preds = %.lr.ph.i, %4
  ret void
}